; Function Attrs: mustprogress nofree norecurse nosync nounwind willreturn memory(read, inaccessiblemem: none) uwtable
define noundef zeroext i1 @_ZN8nanobind6detail22nb_inst_python_derivedEP7_object(ptr noundef readonly captures(none) %0) local_unnamed_addr #13 {
  %2 = getelementptr inbounds nuw i8, ptr %0, i64 8
  %3 = load ptr, ptr %2, align 8
  %4 = getelementptr inbounds nuw i8, ptr %3, i64 892
  %5 = load i32, ptr %4, align 4
  %6 = and i32 %5, 65536
  %7 = icmp ne i32 %6, 0
  ret i1 %7
}